; Function Attrs: mustprogress uwtable
define dso_local void @_ZN3igl6opengl16create_index_vboERKN5Eigen6MatrixIiLin1ELin1ELi0ELin1ELin1EEERj(ptr noundef nonnull align 8 dereferenceable(24) %0, ptr noundef nonnull align 4 dereferenceable(4) %1) local_unnamed_addr #0 personality ptr @__gxx_personality_v0 {
  %3 = alloca %"class.Eigen::Matrix", align 8
  %4 = alloca %"class.Eigen::Transpose", align 8
  %5 = load ptr, ptr @glad_glGenBuffers, align 8, !tbaa !4
  tail call void %5(i32 noundef 1, ptr noundef nonnull %1)
  %6 = load ptr, ptr @glad_glBindBuffer, align 8, !tbaa !4
  %7 = load i32, ptr %1, align 4, !tbaa !8
  tail call void %6(i32 noundef 34963, i32 noundef %7)
  call void @llvm.lifetime.start.p0(i64 24, ptr nonnull %3) #8
  call void @llvm.lifetime.start.p0(i64 8, ptr nonnull %4) #8
  store ptr %0, ptr %4, align 8
  call void @_ZN5Eigen15PlainObjectBaseINS_6MatrixIiLin1ELin1ELi0ELin1ELin1EEEEC2INS_9TransposeIKS2_EEEERKNS_9DenseBaseIT_EE(ptr noundef nonnull align 8 dereferenceable(24) %3, ptr noundef nonnull align 1 dereferenceable(1) %4)
  call void @llvm.lifetime.end.p0(i64 8, ptr nonnull %4) #8
  %8 = load ptr, ptr @glad_glBufferData, align 8, !tbaa !4
  %9 = getelementptr inbounds nuw i8, ptr %0, i64 8
  %10 = load i64, ptr %9, align 8, !tbaa !10
  %11 = getelementptr inbounds nuw i8, ptr %0, i64 16
  %12 = load i64, ptr %11, align 8, !tbaa !14
  %13 = load ptr, ptr %3, align 8, !tbaa !15
  %14 = shl i64 %10, 2
  %15 = mul i64 %14, %12
  invoke void %8(i32 noundef 34963, i64 noundef %15, ptr noundef %13, i32 noundef 35044)
          to label %16 unwind label %19

16:                                               ; preds = %2
  %17 = load ptr, ptr %3, align 8, !tbaa !15
  call void @free(ptr noundef %17) #8
  call void @llvm.lifetime.end.p0(i64 24, ptr nonnull %3) #8
  %18 = load ptr, ptr @glad_glBindBuffer, align 8, !tbaa !4
  call void %18(i32 noundef 34963, i32 noundef 0)
  ret void

19:                                               ; preds = %2
  %20 = landingpad { ptr, i32 }
          cleanup
  %21 = load ptr, ptr %3, align 8, !tbaa !15
  call void @free(ptr noundef %21) #8
  call void @llvm.lifetime.end.p0(i64 24, ptr nonnull %3) #8
  resume { ptr, i32 } %20
}